target datalayout = "e-m:e-p270:32:32-p271:32:32-p272:64:64-i64:64-i128:128-f80:128-n8:16:32:64-S128"
target triple = "x86_64-pc-linux-gnu"

%struct.persist_msg_t = type { ptr, ptr, i16 }
%struct.dbd_list_msg_t = type { ptr, i32 }

; Function Attrs: nounwind uwtable
define dso_local i32 @acct_storage_p_add_tres(ptr noundef %0, i32 noundef %1, ptr noundef %2) #0 {
  %4 = alloca i32, align 4
  %5 = alloca ptr, align 8
  %6 = alloca i32, align 4
  %7 = alloca ptr, align 8
  %8 = alloca %struct.persist_msg_t, align 8
  %9 = alloca %struct.dbd_list_msg_t, align 8
  %10 = alloca i32, align 4
  %11 = alloca i32, align 4
  %12 = alloca i32, align 4
  store ptr %0, ptr %5, align 8
  store i32 %1, ptr %6, align 4
  store ptr %2, ptr %7, align 8
  call void @llvm.lifetime.start.p0(i64 24, ptr %8) #9
  call void @llvm.memset.p0.i64(ptr align 8 %8, i8 0, i64 24, i1 false)
  call void @llvm.lifetime.start.p0(i64 16, ptr %9) #9
  call void @llvm.lifetime.start.p0(i64 4, ptr %10) #9
  call void @llvm.lifetime.start.p0(i64 4, ptr %11) #9
  %13 = load ptr, ptr %7, align 8
  %14 = icmp ne ptr %13, null
  br i1 %14, label %16, label %15

15:                                               ; preds = %3
  store i32 0, ptr %4, align 4
  store i32 1, ptr %12, align 4
  br label %30

16:                                               ; preds = %3
  call void @llvm.memset.p0.i64(ptr align 8 %9, i8 0, i64 16, i1 false)
  %17 = load ptr, ptr %7, align 8
  %18 = getelementptr inbounds nuw %struct.dbd_list_msg_t, ptr %9, i32 0, i32 0
  store ptr %17, ptr %18, align 8
  %19 = getelementptr inbounds nuw %struct.persist_msg_t, ptr %8, i32 0, i32 2
  store i16 1485, ptr %19, align 8
  %20 = load ptr, ptr %5, align 8
  %21 = getelementptr inbounds nuw %struct.persist_msg_t, ptr %8, i32 0, i32 0
  store ptr %20, ptr %21, align 8
  %22 = getelementptr inbounds nuw %struct.persist_msg_t, ptr %8, i32 0, i32 1
  store ptr %9, ptr %22, align 8
  %23 = call i32 @dbd_conn_send_recv_rc_msg(i16 noundef zeroext 11008, ptr noundef %8, ptr noundef %11)
  store i32 %23, ptr %10, align 4
  %24 = load i32, ptr %11, align 4
  %25 = icmp ne i32 %24, 0
  br i1 %25, label %26, label %28

26:                                               ; preds = %16
  %27 = load i32, ptr %11, align 4
  store i32 %27, ptr %10, align 4
  br label %28

28:                                               ; preds = %26, %16
  %29 = load i32, ptr %10, align 4
  store i32 %29, ptr %4, align 4
  store i32 1, ptr %12, align 4
  br label %30

30:                                               ; preds = %28, %15
  call void @llvm.lifetime.end.p0(i64 4, ptr %11) #9
  call void @llvm.lifetime.end.p0(i64 4, ptr %10) #9
  call void @llvm.lifetime.end.p0(i64 16, ptr %9) #9
  call void @llvm.lifetime.end.p0(i64 24, ptr %8) #9
  %31 = load i32, ptr %4, align 4
  ret i32 %31
}