; Function Attrs: nounwind uwtable
define dso_local i32 @acct_storage_p_add_tres(ptr noundef %0, i32 noundef %1, ptr noundef %2) local_unnamed_addr #0 {
  %4 = alloca %struct.persist_msg_t, align 8
  %5 = alloca %struct.dbd_list_msg_t, align 8
  %6 = alloca i32, align 4
  call void @llvm.lifetime.start.p0(i64 24, ptr nonnull %4) #11
  %7 = getelementptr inbounds nuw i8, ptr %4, i64 16
  store i64 0, ptr %7, align 8
  call void @llvm.lifetime.start.p0(i64 16, ptr nonnull %5) #11
  call void @llvm.lifetime.start.p0(i64 4, ptr nonnull %6) #11
  %.not = icmp eq ptr %2, null
  br i1 %.not, label %14, label %8

8:                                                ; preds = %3
  %9 = getelementptr inbounds nuw i8, ptr %5, i64 8
  store i64 0, ptr %9, align 8
  store ptr %2, ptr %5, align 8
  %10 = getelementptr inbounds nuw i8, ptr %4, i64 16
  store i16 1485, ptr %10, align 8
  store ptr %0, ptr %4, align 8
  %11 = getelementptr inbounds nuw i8, ptr %4, i64 8
  store ptr %5, ptr %11, align 8
  %12 = call i32 @dbd_conn_send_recv_rc_msg(i16 noundef zeroext 11008, ptr noundef nonnull %4, ptr noundef nonnull %6) #11
  %13 = load i32, ptr %6, align 4
  %.not7 = icmp eq i32 %13, 0
  %spec.select = select i1 %.not7, i32 %12, i32 %13
  br label %14

14:                                               ; preds = %3, %8
  %.04 = phi i32 [ %spec.select, %8 ], [ 0, %3 ]
  call void @llvm.lifetime.end.p0(i64 4, ptr nonnull %6) #11
  call void @llvm.lifetime.end.p0(i64 16, ptr nonnull %5) #11
  call void @llvm.lifetime.end.p0(i64 24, ptr nonnull %4) #11
  ret i32 %.04
}